; Function Attrs: mustprogress uwtable
define dso_local noundef ptr @_ZN22btGenericPoolAllocator13push_new_poolEv(ptr nocapture noundef nonnull align 8 dereferenceable(160) %this) local_unnamed_addr #2 align 2 {
entry:
  %m_pool_count = getelementptr inbounds i8, ptr %this, i64 152
  %0 = load i64, ptr %m_pool_count, align 8
  %cmp = icmp ugt i64 %0, 15
  br i1 %cmp, label %return, label %if.end

if.end:                                           ; preds = %entry
  %call = tail call noundef ptr @_Z22btAlignedAllocInternalmi(i64 noundef 56, i32 noundef 16)
  %m_pools = getelementptr inbounds i8, ptr %this, i64 24
  %1 = load i64, ptr %m_pool_count, align 8
  %arrayidx = getelementptr inbounds [16 x ptr], ptr %m_pools, i64 0, i64 %1
  store ptr %call, ptr %arrayidx, align 8
  %2 = load i64, ptr %m_pool_count, align 8
  %arrayidx5 = getelementptr inbounds [16 x ptr], ptr %m_pools, i64 0, i64 %2
  %3 = load ptr, ptr %arrayidx5, align 8
  %m_pool_element_size = getelementptr inbounds i8, ptr %this, i64 8
  %4 = load i64, ptr %m_pool_element_size, align 8
  %m_pool_element_count = getelementptr inbounds i8, ptr %this, i64 16
  %5 = load i64, ptr %m_pool_element_count, align 8
  %m_allocated_count.i = getelementptr inbounds i8, ptr %3, i64 24
  %m_element_size.i = getelementptr inbounds i8, ptr %3, i64 40
  tail call void @llvm.memset.p0.i64(ptr noundef nonnull align 8 dereferenceable(16) %m_allocated_count.i, i8 0, i64 16, i1 false)
  store i64 %4, ptr %m_element_size.i, align 8
  %m_max_element_count.i = getelementptr inbounds i8, ptr %3, i64 48
  store i64 %5, ptr %m_max_element_count.i, align 8
  %mul.i = mul i64 %5, %4
  %call.i = tail call noundef ptr @_Z22btAlignedAllocInternalmi(i64 noundef %mul.i, i32 noundef 16)
  store ptr %call.i, ptr %3, align 8
  %6 = load i64, ptr %m_max_element_count.i, align 8
  %mul5.i = shl i64 %6, 3
  %call6.i = tail call noundef ptr @_Z22btAlignedAllocInternalmi(i64 noundef %mul5.i, i32 noundef 16)
  %m_free_nodes.i = getelementptr inbounds i8, ptr %3, i64 8
  store ptr %call6.i, ptr %m_free_nodes.i, align 8
  %7 = load i64, ptr %m_max_element_count.i, align 8
  %mul8.i = shl i64 %7, 3
  %call9.i = tail call noundef ptr @_Z22btAlignedAllocInternalmi(i64 noundef %mul8.i, i32 noundef 16)
  %m_allocated_sizes.i = getelementptr inbounds i8, ptr %3, i64 16
  store ptr %call9.i, ptr %m_allocated_sizes.i, align 8
  %8 = load i64, ptr %m_max_element_count.i, align 8
  %cmp3.not.i = icmp eq i64 %8, 0
  br i1 %cmp3.not.i, label %_ZN19btGenericMemoryPool9init_poolEmm.exit, label %for.body.i

for.body.i:                                       ; preds = %if.end, %for.body.i
  %i.04.i = phi i64 [ %inc.i, %for.body.i ], [ 0, %if.end ]
  %9 = load ptr, ptr %m_allocated_sizes.i, align 8
  %arrayidx.i = getelementptr inbounds i64, ptr %9, i64 %i.04.i
  store i64 0, ptr %arrayidx.i, align 8
  %inc.i = add nuw i64 %i.04.i, 1
  %10 = load i64, ptr %m_max_element_count.i, align 8
  %cmp.i = icmp ult i64 %inc.i, %10
  br i1 %cmp.i, label %for.body.i, label %_ZN19btGenericMemoryPool9init_poolEmm.exit, !llvm.loop !7

_ZN19btGenericMemoryPool9init_poolEmm.exit:       ; preds = %for.body.i, %if.end
  %11 = load i64, ptr %m_pool_count, align 8
  %inc = add i64 %11, 1
  store i64 %inc, ptr %m_pool_count, align 8
  br label %return

return:                                           ; preds = %entry, %_ZN19btGenericMemoryPool9init_poolEmm.exit
  %retval.0 = phi ptr [ %call, %_ZN19btGenericMemoryPool9init_poolEmm.exit ], [ null, %entry ]
  ret ptr %retval.0
}